target datalayout = "e-m:e-p270:32:32-p271:32:32-p272:64:64-i64:64-i128:128-f80:128-n8:16:32:64-S128"
target triple = "x86_64-pc-linux-gnu"

%struct.mbedtls_pk_info_t = type { i32, ptr, ptr, ptr, ptr, ptr, ptr, ptr, ptr, ptr, ptr, ptr }
%struct.mbedtls_pk_context = type { ptr, ptr }

; Function Attrs: nounwind uwtable
define hidden i32 @mbedtls_pk_setup(ptr noundef %0, ptr noundef %1) #0 {
  %3 = alloca i32, align 4
  %4 = alloca ptr, align 8
  %5 = alloca ptr, align 8
  store ptr %0, ptr %4, align 8, !tbaa !3
  store ptr %1, ptr %5, align 8, !tbaa !17
  %6 = load ptr, ptr %5, align 8, !tbaa !17
  %7 = icmp eq ptr %6, null
  br i1 %7, label %13, label %8

8:                                                ; preds = %2
  %9 = load ptr, ptr %4, align 8, !tbaa !3
  %10 = getelementptr inbounds nuw %struct.mbedtls_pk_context, ptr %9, i32 0, i32 0
  %11 = load ptr, ptr %10, align 8, !tbaa !8
  %12 = icmp ne ptr %11, null
  br i1 %12, label %13, label %14

13:                                               ; preds = %8, %2
  store i32 -16000, ptr %3, align 4
  br label %32

14:                                               ; preds = %8
  %15 = load ptr, ptr %5, align 8, !tbaa !17
  %16 = getelementptr inbounds nuw %struct.mbedtls_pk_info_t, ptr %15, i32 0, i32 9
  %17 = load ptr, ptr %16, align 8, !tbaa !18
  %18 = icmp ne ptr %17, null
  br i1 %18, label %19, label %28

19:                                               ; preds = %14
  %20 = load ptr, ptr %5, align 8, !tbaa !17
  %21 = getelementptr inbounds nuw %struct.mbedtls_pk_info_t, ptr %20, i32 0, i32 9
  %22 = load ptr, ptr %21, align 8, !tbaa !18
  %23 = call ptr %22()
  %24 = load ptr, ptr %4, align 8, !tbaa !3
  %25 = getelementptr inbounds nuw %struct.mbedtls_pk_context, ptr %24, i32 0, i32 1
  store ptr %23, ptr %25, align 8, !tbaa !11
  %26 = icmp eq ptr %23, null
  br i1 %26, label %27, label %28

27:                                               ; preds = %19
  store i32 -16256, ptr %3, align 4
  br label %32

28:                                               ; preds = %19, %14
  %29 = load ptr, ptr %5, align 8, !tbaa !17
  %30 = load ptr, ptr %4, align 8, !tbaa !3
  %31 = getelementptr inbounds nuw %struct.mbedtls_pk_context, ptr %30, i32 0, i32 0
  store ptr %29, ptr %31, align 8, !tbaa !8
  store i32 0, ptr %3, align 4
  br label %32

32:                                               ; preds = %28, %27, %13
  %33 = load i32, ptr %3, align 4
  ret i32 %33
}