; Function Attrs: nounwind uwtable
define hidden range(i32 -16256, 1) i32 @mbedtls_pk_setup(ptr noundef captures(none) %0, ptr noundef %1) local_unnamed_addr #1 {
  %3 = icmp eq ptr %1, null
  br i1 %3, label %14, label %4

4:                                                ; preds = %2
  %5 = load ptr, ptr %0, align 8, !tbaa !3
  %.not = icmp eq ptr %5, null
  br i1 %.not, label %6, label %14

6:                                                ; preds = %4
  %7 = getelementptr inbounds nuw i8, ptr %1, i64 72
  %8 = load ptr, ptr %7, align 8, !tbaa !14
  %.not9 = icmp eq ptr %8, null
  br i1 %.not9, label %13, label %9

9:                                                ; preds = %6
  %10 = tail call ptr %8() #7
  %11 = getelementptr inbounds nuw i8, ptr %0, i64 8
  store ptr %10, ptr %11, align 8, !tbaa !13
  %12 = icmp eq ptr %10, null
  br i1 %12, label %14, label %13

13:                                               ; preds = %9, %6
  store ptr %1, ptr %0, align 8, !tbaa !3
  br label %14

14:                                               ; preds = %9, %2, %4, %13
  %.0 = phi i32 [ 0, %13 ], [ -16000, %4 ], [ -16000, %2 ], [ -16256, %9 ]
  ret i32 %.0
}